target datalayout = "e-m:e-p270:32:32-p271:32:32-p272:64:64-i64:64-i128:128-f80:128-n8:16:32:64-S128"
target triple = "x86_64-pc-linux-gnu"

%"class.llvm::SmallVectorBase" = type { ptr, i32, i32 }
%"class.llvm::ScheduleDAGTopologicalSort" = type { ptr, ptr, i8, %"class.llvm::SmallVector.159", %"class.std::vector.164", %"class.std::vector.164", %"class.llvm::BitVector" }
%"class.llvm::SmallVector.159" = type { %"class.llvm::SmallVectorImpl.160", %"struct.llvm::SmallVectorStorage.163" }
%"class.llvm::SmallVectorImpl.160" = type { %"class.llvm::SmallVectorTemplateBase.161" }
%"class.llvm::SmallVectorTemplateBase.161" = type { %"class.llvm::SmallVectorTemplateCommon.162" }
%"class.llvm::SmallVectorTemplateCommon.162" = type { %"class.llvm::SmallVectorBase" }
%"struct.llvm::SmallVectorStorage.163" = type { [256 x i8] }
%"class.std::vector.164" = type { %"struct.std::_Vector_base.165" }
%"struct.std::_Vector_base.165" = type { %"struct.std::_Vector_base<int, std::allocator<int>>::_Vector_impl" }
%"struct.std::_Vector_base<int, std::allocator<int>>::_Vector_impl" = type { %"struct.std::_Vector_base<int, std::allocator<int>>::_Vector_impl_data" }
%"struct.std::_Vector_base<int, std::allocator<int>>::_Vector_impl_data" = type { ptr, ptr, ptr }
%"class.llvm::BitVector" = type <{ %"class.llvm::SmallVector.123", i32, [4 x i8] }>
%"class.llvm::SmallVector.123" = type { %"class.llvm::SmallVectorImpl.124", %"struct.llvm::SmallVectorStorage.127" }
%"class.llvm::SmallVectorImpl.124" = type { %"class.llvm::SmallVectorTemplateBase.125" }
%"class.llvm::SmallVectorTemplateBase.125" = type { %"class.llvm::SmallVectorTemplateCommon.126" }
%"class.llvm::SmallVectorTemplateCommon.126" = type { %"class.llvm::SmallVectorBase" }
%"struct.llvm::SmallVectorStorage.127" = type { [48 x i8] }

; Function Attrs: mustprogress nounwind uwtable
define dso_local void @_ZN4llvm26ScheduleDAGTopologicalSort13AddPredQueuedEPNS_5SUnitES2_(ptr noundef nonnull align 8 dereferenceable(416) %0, ptr noundef %1, ptr noundef %2) #1 align 2 {
  %4 = alloca ptr, align 8
  %5 = alloca ptr, align 8
  %6 = alloca ptr, align 8
  store ptr %0, ptr %4, align 8
  store ptr %1, ptr %5, align 8
  store ptr %2, ptr %6, align 8
  %7 = load ptr, ptr %4, align 8
  %8 = getelementptr inbounds nuw %"class.llvm::ScheduleDAGTopologicalSort", ptr %7, i32 0, i32 2
  %9 = load i8, ptr %8, align 8
  %10 = trunc i8 %9 to i1
  br i1 %10, label %15, label %11

11:                                               ; preds = %3
  %12 = getelementptr inbounds nuw %"class.llvm::ScheduleDAGTopologicalSort", ptr %7, i32 0, i32 3
  %13 = call noundef i64 @_ZNK4llvm15SmallVectorBaseIjE4sizeEv(ptr noundef nonnull align 8 dereferenceable(16) %12)
  %14 = icmp ugt i64 %13, 10
  br label %15

15:                                               ; preds = %11, %3
  %16 = phi i1 [ true, %3 ], [ %14, %11 ]
  %17 = getelementptr inbounds nuw %"class.llvm::ScheduleDAGTopologicalSort", ptr %7, i32 0, i32 2
  %18 = zext i1 %16 to i8
  store i8 %18, ptr %17, align 8
  %19 = getelementptr inbounds nuw %"class.llvm::ScheduleDAGTopologicalSort", ptr %7, i32 0, i32 2
  %20 = load i8, ptr %19, align 8
  %21 = trunc i8 %20 to i1
  br i1 %21, label %22, label %23

22:                                               ; preds = %15
  br label %26

23:                                               ; preds = %15
  %24 = getelementptr inbounds nuw %"class.llvm::ScheduleDAGTopologicalSort", ptr %7, i32 0, i32 3
  %25 = call noundef nonnull align 8 dereferenceable(16) ptr @_ZN4llvm15SmallVectorImplISt4pairIPNS_5SUnitES3_EE12emplace_backIJRS3_S7_EEERS4_DpOT_(ptr noundef nonnull align 8 dereferenceable(16) %24, ptr noundef nonnull align 8 dereferenceable(8) %5, ptr noundef nonnull align 8 dereferenceable(8) %6)
  br label %26

26:                                               ; preds = %23, %22
  ret void
}