; Function Attrs: mustprogress nounwind uwtable
define dso_local void @_ZN4llvm26ScheduleDAGTopologicalSort13AddPredQueuedEPNS_5SUnitES2_(ptr noundef nonnull align 8 dereferenceable(416) %0, ptr noundef %1, ptr noundef %2) local_unnamed_addr #1 align 2 {
  %4 = alloca ptr, align 8
  %5 = alloca ptr, align 8
  store ptr %1, ptr %4, align 8
  store ptr %2, ptr %5, align 8
  %6 = getelementptr inbounds nuw i8, ptr %0, i64 16
  %7 = load i8, ptr %6, align 8
  %8 = trunc i8 %7 to i1
  br i1 %8, label %.critedge, label %9

9:                                                ; preds = %3
  %10 = getelementptr inbounds nuw i8, ptr %0, i64 24
  %11 = tail call noundef i64 @_ZNK4llvm15SmallVectorBaseIjE4sizeEv(ptr noundef nonnull align 8 dereferenceable(16) %10) #16
  %12 = icmp ugt i64 %11, 10
  %13 = zext i1 %12 to i8
  store i8 %13, ptr %6, align 8
  br i1 %12, label %16, label %14

14:                                               ; preds = %9
  %15 = call noundef nonnull align 8 dereferenceable(16) ptr @_ZN4llvm15SmallVectorImplISt4pairIPNS_5SUnitES3_EE12emplace_backIJRS3_S7_EEERS4_DpOT_(ptr noundef nonnull align 8 dereferenceable(16) %10, ptr noundef nonnull align 8 dereferenceable(8) %4, ptr noundef nonnull align 8 dereferenceable(8) %5)
  br label %16

.critedge:                                        ; preds = %3
  store i8 1, ptr %6, align 8
  br label %16

16:                                               ; preds = %.critedge, %9, %14
  ret void
}